; Function Attrs: mustprogress nounwind uwtable
define hidden void @_ZN11PtrQueueSet18install_new_bufferER8PtrQueue(ptr nocapture noundef nonnull readonly align 8 dereferenceable(16) %0, ptr nocapture noundef nonnull writeonly align 8 dereferenceable(16) %1) local_unnamed_addr #4 align 2 {
  %3 = getelementptr inbounds i8, ptr %0, i64 8
  %4 = load ptr, ptr %3, align 8
  %5 = tail call noundef ptr @_ZN10BufferNode9Allocator8allocateEv(ptr noundef nonnull align 8 dereferenceable(592) %4) #8
  %6 = getelementptr inbounds i8, ptr %5, i64 16
  %7 = getelementptr inbounds i8, ptr %1, i64 8
  store ptr %6, ptr %7, align 8
  %8 = getelementptr inbounds i8, ptr %5, i64 4
  %9 = load i32, ptr %8, align 4
  %10 = zext i32 %9 to i64
  %11 = shl nuw nsw i64 %10, 3
  store i64 %11, ptr %1, align 8
  ret void
}